; Function Attrs: mustprogress uwtable
define { i64, ptr } @_ZNK8facebook5velox9aggregate8ValueSet5writeERKNS0_10StringViewE(ptr nocapture noundef nonnull readonly align 8 dereferenceable(8) %this, ptr nocapture noundef nonnull readonly align 8 dereferenceable(16) %value) local_unnamed_addr #0 align 2 {
entry:
  %0 = load i32, ptr %value, align 8
  %cmp.i.i = icmp ult i32 %0, 13
  br i1 %cmp.i.i, label %if.then, label %if.end

if.then:                                          ; preds = %entry
  %retval.sroa.0.0.copyload = load i64, ptr %value, align 8
  %retval.sroa.0.sroa.3.0.extract.shift = lshr i64 %retval.sroa.0.0.copyload, 32
  %retval.sroa.0.sroa.3.0.extract.trunc = trunc i64 %retval.sroa.0.sroa.3.0.extract.shift to i32
  %retval.sroa.4.0.value.sroa_idx = getelementptr inbounds i8, ptr %value, i64 8
  %retval.sroa.4.0.copyload = load ptr, ptr %retval.sroa.4.0.value.sroa_idx, align 8
  %.pre = and i64 %retval.sroa.0.0.copyload, 4294967295
  br label %return

if.end:                                           ; preds = %entry
  %1 = load ptr, ptr %this, align 8
  %currentHeader_.i = getelementptr inbounds i8, ptr %1, i64 37272
  %2 = load ptr, ptr %currentHeader_.i, align 8
  %tobool.not.i = icmp eq ptr %2, null
  br i1 %tobool.not.i, label %_ZN8facebook5velox19HashStringAllocator8allocateEi.exit, label %if.then.i

if.then.i:                                        ; preds = %if.end
  tail call void @llvm.trap()
  unreachable

_ZN8facebook5velox19HashStringAllocator8allocateEi.exit: ; preds = %if.end
  %conv.i = zext i32 %0 to i64
  %.sroa.speculated.i = tail call i32 @llvm.smax.i32(i32 %0, i32 16)
  %call3.i = tail call noundef ptr @_ZN8facebook5velox19HashStringAllocator8allocateEib(ptr noundef nonnull align 8 dereferenceable(37416) %1, i32 noundef %.sroa.speculated.i, i1 noundef zeroext true)
  %add.ptr.i = getelementptr inbounds i8, ptr %call3.i, i64 4
  %3 = load i32, ptr %value, align 8
  %cmp.i.i.i = icmp ult i32 %3, 13
  %prefix_.i = getelementptr inbounds i8, ptr %value, i64 4
  %value_.i = getelementptr inbounds i8, ptr %value, i64 8
  %4 = load ptr, ptr %value_.i, align 8
  %cond.i = select i1 %cmp.i.i.i, ptr %prefix_.i, ptr %4
  tail call void @llvm.memcpy.p0.p0.i64(ptr nonnull align 1 %add.ptr.i, ptr align 1 %cond.i, i64 %conv.i, i1 false)
  %cmp.i = icmp slt i32 %0, 0
  br i1 %cmp.i, label %if.then.i10, label %_ZN8facebook5velox10StringViewC2EPKci.exit

if.then.i10:                                      ; preds = %_ZN8facebook5velox19HashStringAllocator8allocateEi.exit
  tail call void @llvm.trap()
  unreachable

_ZN8facebook5velox10StringViewC2EPKci.exit:       ; preds = %_ZN8facebook5velox19HashStringAllocator8allocateEi.exit
  %5 = load i32, ptr %add.ptr.i, align 1
  br label %return

return:                                           ; preds = %_ZN8facebook5velox10StringViewC2EPKci.exit, %if.then
  %retval.sroa.0.sroa.0.0.insert.ext.pre-phi = phi i64 [ %conv.i, %_ZN8facebook5velox10StringViewC2EPKci.exit ], [ %.pre, %if.then ]
  %retval.sroa.0.sroa.3.0 = phi i32 [ %5, %_ZN8facebook5velox10StringViewC2EPKci.exit ], [ %retval.sroa.0.sroa.3.0.extract.trunc, %if.then ]
  %retval.sroa.4.0 = phi ptr [ %add.ptr.i, %_ZN8facebook5velox10StringViewC2EPKci.exit ], [ %retval.sroa.4.0.copyload, %if.then ]
  %retval.sroa.0.sroa.3.0.insert.ext = zext i32 %retval.sroa.0.sroa.3.0 to i64
  %retval.sroa.0.sroa.3.0.insert.shift = shl nuw i64 %retval.sroa.0.sroa.3.0.insert.ext, 32
  %retval.sroa.0.sroa.0.0.insert.insert = or disjoint i64 %retval.sroa.0.sroa.3.0.insert.shift, %retval.sroa.0.sroa.0.0.insert.ext.pre-phi
  %.fca.0.insert = insertvalue { i64, ptr } poison, i64 %retval.sroa.0.sroa.0.0.insert.insert, 0
  %.fca.1.insert = insertvalue { i64, ptr } %.fca.0.insert, ptr %retval.sroa.4.0, 1
  ret { i64, ptr } %.fca.1.insert
}